S'm1'
p1
.S'm1'
p1
.S'm2'
p1
.S'm3'
p1
.S'12312'
p1
.S'312'
p1
.S'3'
.S'13'
p1
.S'1'
.S'321'
p1
.S'3'
.S'123'
p1
.S'12'
p1
.S'312'
p1
.S'm1'
p1
.S'm2'
p1
.S'm3'
p1
.S'12312'
p1
.S'312'
p1
.S'3'
.S'13'
p1
.S'1'
.S'321'
p1
.S'3'
.S'123'
p1
.S'12'
p1
.S'312'
p1
.